target datalayout = "e-m:e-p270:32:32-p271:32:32-p272:64:64-i64:64-i128:128-f80:128-n8:16:32:64-S128"
target triple = "x86_64-pc-linux-gnu"

%struct.PRExplodedTime = type { i32, i32, i32, i32, i32, i32, i16, i8, i16, %struct.PRTimeParameters }
%struct.PRTimeParameters = type { i32, i32 }

; Function Attrs: mustprogress uwtable
define noundef i64 @_Z14PR_ImplodeTimePK14PRExplodedTime(ptr noundef %0) #0 {
  %2 = alloca ptr, align 8
  %3 = alloca %struct.PRExplodedTime, align 4
  %4 = alloca i64, align 8
  %5 = alloca i64, align 8
  %6 = alloca i64, align 8
  %7 = alloca i64, align 8
  %8 = alloca i64, align 8
  %9 = alloca i32, align 4
  %10 = alloca i32, align 4
  store ptr %0, ptr %2, align 8, !tbaa !3
  call void @llvm.lifetime.start.p0(i64 40, ptr %3) #7
  call void @llvm.lifetime.start.p0(i64 8, ptr %4) #7
  call void @llvm.lifetime.start.p0(i64 8, ptr %5) #7
  call void @llvm.lifetime.start.p0(i64 8, ptr %6) #7
  call void @llvm.lifetime.start.p0(i64 8, ptr %7) #7
  call void @llvm.lifetime.start.p0(i64 8, ptr %8) #7
  call void @llvm.lifetime.start.p0(i64 4, ptr %9) #7
  call void @llvm.lifetime.start.p0(i64 4, ptr %10) #7
  %11 = load ptr, ptr %2, align 8, !tbaa !3
  call void @llvm.memcpy.p0.p0.i64(ptr align 4 %3, ptr align 4 %11, i64 40, i1 false), !tbaa.struct !8
  call void @_Z16PR_NormalizeTimeP14PRExplodedTimePF16PRTimeParametersPKS_E(ptr noundef %3, ptr noundef @_Z16PR_GMTParametersPK14PRExplodedTime)
  %12 = getelementptr inbounds nuw %struct.PRExplodedTime, ptr %3, i32 0, i32 6
  %13 = load i16, ptr %12, align 4, !tbaa !14
  %14 = sext i16 %13 to i32
  %15 = sub nsw i32 %14, 1
  %16 = mul nsw i32 %15, 365
  %17 = getelementptr inbounds nuw %struct.PRExplodedTime, ptr %3, i32 0, i32 6
  %18 = load i16, ptr %17, align 4, !tbaa !14
  %19 = sext i16 %18 to i32
  %20 = sub nsw i32 %19, 1
  %21 = sdiv i32 %20, 4
  %22 = getelementptr inbounds nuw %struct.PRExplodedTime, ptr %3, i32 0, i32 6
  %23 = load i16, ptr %22, align 4, !tbaa !14
  %24 = sext i16 %23 to i32
  %25 = sub nsw i32 %24, 1
  %26 = sdiv i32 %25, 100
  %27 = sub nsw i32 %21, %26
  %28 = getelementptr inbounds nuw %struct.PRExplodedTime, ptr %3, i32 0, i32 6
  %29 = load i16, ptr %28, align 4, !tbaa !14
  %30 = sext i16 %29 to i32
  %31 = sub nsw i32 %30, 1
  %32 = sdiv i32 %31, 400
  %33 = add nsw i32 %27, %32
  %34 = add nsw i32 %16, %33
  %35 = sub nsw i32 %34, 719162
  store i32 %35, ptr %9, align 4, !tbaa !9
  %36 = getelementptr inbounds nuw %struct.PRExplodedTime, ptr %3, i32 0, i32 8
  %37 = load i16, ptr %36, align 4, !tbaa !17
  %38 = sext i16 %37 to i32
  %39 = mul nsw i32 %38, 86400
  %40 = getelementptr inbounds nuw %struct.PRExplodedTime, ptr %3, i32 0, i32 3
  %41 = load i32, ptr %40, align 4, !tbaa !18
  %42 = mul nsw i32 %41, 3600
  %43 = add nsw i32 %39, %42
  %44 = getelementptr inbounds nuw %struct.PRExplodedTime, ptr %3, i32 0, i32 2
  %45 = load i32, ptr %44, align 4, !tbaa !19
  %46 = mul nsw i32 %45, 60
  %47 = add nsw i32 %43, %46
  %48 = getelementptr inbounds nuw %struct.PRExplodedTime, ptr %3, i32 0, i32 1
  %49 = load i32, ptr %48, align 4, !tbaa !20
  %50 = add nsw i32 %47, %49
  store i32 %50, ptr %10, align 4, !tbaa !9
  %51 = load i32, ptr %9, align 4, !tbaa !9
  %52 = sext i32 %51 to i64
  store i64 %52, ptr %7, align 8, !tbaa !21
  store i64 86400, ptr %5, align 8, !tbaa !21
  %53 = load i64, ptr %7, align 8, !tbaa !21
  %54 = load i64, ptr %5, align 8, !tbaa !21
  %55 = mul nsw i64 %53, %54
  store i64 %55, ptr %7, align 8, !tbaa !21
  %56 = load i32, ptr %10, align 4, !tbaa !9
  %57 = sext i32 %56 to i64
  store i64 %57, ptr %8, align 8, !tbaa !21
  %58 = load i64, ptr %8, align 8, !tbaa !21
  %59 = load i64, ptr %7, align 8, !tbaa !21
  %60 = add nsw i64 %58, %59
  store i64 %60, ptr %8, align 8, !tbaa !21
  %61 = getelementptr inbounds nuw %struct.PRExplodedTime, ptr %3, i32 0, i32 9
  %62 = getelementptr inbounds nuw %struct.PRTimeParameters, ptr %61, i32 0, i32 0
  %63 = load i32, ptr %62, align 4, !tbaa !23
  %64 = sext i32 %63 to i64
  store i64 %64, ptr %7, align 8, !tbaa !21
  %65 = load i64, ptr %8, align 8, !tbaa !21
  %66 = load i64, ptr %7, align 8, !tbaa !21
  %67 = sub nsw i64 %65, %66
  store i64 %67, ptr %8, align 8, !tbaa !21
  %68 = getelementptr inbounds nuw %struct.PRExplodedTime, ptr %3, i32 0, i32 9
  %69 = getelementptr inbounds nuw %struct.PRTimeParameters, ptr %68, i32 0, i32 1
  %70 = load i32, ptr %69, align 4, !tbaa !24
  %71 = sext i32 %70 to i64
  store i64 %71, ptr %7, align 8, !tbaa !21
  %72 = load i64, ptr %8, align 8, !tbaa !21
  %73 = load i64, ptr %7, align 8, !tbaa !21
  %74 = sub nsw i64 %72, %73
  store i64 %74, ptr %8, align 8, !tbaa !21
  store i64 1000000, ptr %6, align 8, !tbaa !21
  %75 = load i64, ptr %8, align 8, !tbaa !21
  %76 = load i64, ptr %6, align 8, !tbaa !21
  %77 = mul nsw i64 %75, %76
  store i64 %77, ptr %7, align 8, !tbaa !21
  %78 = getelementptr inbounds nuw %struct.PRExplodedTime, ptr %3, i32 0, i32 0
  %79 = load i32, ptr %78, align 4, !tbaa !25
  %80 = sext i32 %79 to i64
  store i64 %80, ptr %4, align 8, !tbaa !21
  %81 = load i64, ptr %4, align 8, !tbaa !21
  %82 = load i64, ptr %7, align 8, !tbaa !21
  %83 = add nsw i64 %81, %82
  store i64 %83, ptr %4, align 8, !tbaa !21
  %84 = load i64, ptr %4, align 8, !tbaa !21
  call void @llvm.lifetime.end.p0(i64 4, ptr %10) #7
  call void @llvm.lifetime.end.p0(i64 4, ptr %9) #7
  call void @llvm.lifetime.end.p0(i64 8, ptr %8) #7
  call void @llvm.lifetime.end.p0(i64 8, ptr %7) #7
  call void @llvm.lifetime.end.p0(i64 8, ptr %6) #7
  call void @llvm.lifetime.end.p0(i64 8, ptr %5) #7
  call void @llvm.lifetime.end.p0(i64 8, ptr %4) #7
  call void @llvm.lifetime.end.p0(i64 40, ptr %3) #7
  ret i64 %84
}