; Function Attrs: mustprogress uwtable
define noundef range(i64 -1102724273889483648, 978358385890483648) i64 @_Z14PR_ImplodeTimePK14PRExplodedTime(ptr noundef readonly captures(none) %0) local_unnamed_addr #0 {
  %2 = alloca %struct.PRExplodedTime, align 4
  call void @llvm.lifetime.start.p0(i64 40, ptr nonnull %2) #8
  call void @llvm.memcpy.p0.p0.i64(ptr noundef nonnull align 4 dereferenceable(40) %2, ptr noundef nonnull align 4 dereferenceable(40) %0, i64 40, i1 false), !tbaa.struct !3
  call void @_Z16PR_NormalizeTimeP14PRExplodedTimePF16PRTimeParametersPKS_E(ptr noundef nonnull %2, ptr noundef nonnull @_Z16PR_GMTParametersPK14PRExplodedTime)
  %3 = getelementptr inbounds nuw i8, ptr %2, i64 24
  %4 = load i16, ptr %3, align 4, !tbaa !11
  %5 = sext i16 %4 to i32
  %6 = add nsw i32 %5, -1
  %7 = mul nsw i32 %6, 365
  %8 = sdiv i32 %6, 4
  %.neg = sdiv i32 %6, -100
  %9 = sdiv i32 %6, 400
  %10 = add nsw i32 %8, -719162
  %11 = add nsw i32 %10, %.neg
  %12 = add nsw i32 %11, %9
  %13 = add nsw i32 %12, %7
  %14 = getelementptr inbounds nuw i8, ptr %2, i64 28
  %15 = load i16, ptr %14, align 4, !tbaa !14
  %16 = sext i16 %15 to i32
  %17 = mul nsw i32 %16, 86400
  %18 = getelementptr inbounds nuw i8, ptr %2, i64 12
  %19 = load i32, ptr %18, align 4, !tbaa !15
  %20 = mul nsw i32 %19, 3600
  %21 = add nsw i32 %17, %20
  %22 = getelementptr inbounds nuw i8, ptr %2, i64 8
  %23 = load i32, ptr %22, align 4, !tbaa !16
  %24 = mul nsw i32 %23, 60
  %25 = add nsw i32 %21, %24
  %26 = getelementptr inbounds nuw i8, ptr %2, i64 4
  %27 = load i32, ptr %26, align 4, !tbaa !17
  %28 = add nsw i32 %25, %27
  %29 = sext i32 %13 to i64
  %30 = mul nsw i64 %29, 86400
  %31 = sext i32 %28 to i64
  %32 = getelementptr inbounds nuw i8, ptr %2, i64 32
  %33 = load i32, ptr %32, align 4, !tbaa !18
  %34 = sext i32 %33 to i64
  %35 = getelementptr inbounds nuw i8, ptr %2, i64 36
  %36 = load i32, ptr %35, align 4, !tbaa !19
  %37 = sext i32 %36 to i64
  %38 = add nsw i64 %34, %37
  %39 = sub nsw i64 %31, %38
  %40 = add nsw i64 %39, %30
  %41 = mul nsw i64 %40, 1000000
  %42 = load i32, ptr %2, align 4, !tbaa !20
  %43 = sext i32 %42 to i64
  %44 = add nsw i64 %41, %43
  call void @llvm.lifetime.end.p0(i64 40, ptr nonnull %2) #8
  ret i64 %44
}